target datalayout = "e-m:e-p270:32:32-p271:32:32-p272:64:64-i64:64-i128:128-f80:128-n8:16:32:64-S128"
target triple = "x86_64-pc-linux-gnu"

; Function Attrs: nounwind uwtable
define internal i32 @hadamard8_diff16_c(ptr noundef %0, ptr noundef %1, ptr noundef %2, i64 noundef %3, i32 noundef %4) #2 {
  %6 = alloca ptr, align 8
  %7 = alloca ptr, align 8
  %8 = alloca ptr, align 8
  %9 = alloca i64, align 8
  %10 = alloca i32, align 4
  %11 = alloca i32, align 4
  store ptr %0, ptr %6, align 8, !tbaa !22
  store ptr %1, ptr %7, align 8, !tbaa !24
  store ptr %2, ptr %8, align 8, !tbaa !24
  store i64 %3, ptr %9, align 8, !tbaa !26
  store i32 %4, ptr %10, align 4, !tbaa !11
  call void @llvm.lifetime.start.p0(i64 4, ptr %11) #9
  store i32 0, ptr %11, align 4, !tbaa !11
  %12 = load ptr, ptr %6, align 8, !tbaa !22
  %13 = load ptr, ptr %7, align 8, !tbaa !24
  %14 = load ptr, ptr %8, align 8, !tbaa !24
  %15 = load i64, ptr %9, align 8, !tbaa !26
  %16 = call i32 @hadamard8_diff8x8_c(ptr noundef %12, ptr noundef %13, ptr noundef %14, i64 noundef %15, i32 noundef 8)
  %17 = load i32, ptr %11, align 4, !tbaa !11
  %18 = add nsw i32 %17, %16
  store i32 %18, ptr %11, align 4, !tbaa !11
  %19 = load ptr, ptr %6, align 8, !tbaa !22
  %20 = load ptr, ptr %7, align 8, !tbaa !24
  %21 = getelementptr inbounds i8, ptr %20, i64 8
  %22 = load ptr, ptr %8, align 8, !tbaa !24
  %23 = getelementptr inbounds i8, ptr %22, i64 8
  %24 = load i64, ptr %9, align 8, !tbaa !26
  %25 = call i32 @hadamard8_diff8x8_c(ptr noundef %19, ptr noundef %21, ptr noundef %23, i64 noundef %24, i32 noundef 8)
  %26 = load i32, ptr %11, align 4, !tbaa !11
  %27 = add nsw i32 %26, %25
  store i32 %27, ptr %11, align 4, !tbaa !11
  %28 = load i32, ptr %10, align 4, !tbaa !11
  %29 = icmp eq i32 %28, 16
  br i1 %29, label %30, label %55

30:                                               ; preds = %5
  %31 = load i64, ptr %9, align 8, !tbaa !26
  %32 = mul nsw i64 8, %31
  %33 = load ptr, ptr %7, align 8, !tbaa !24
  %34 = getelementptr inbounds i8, ptr %33, i64 %32
  store ptr %34, ptr %7, align 8, !tbaa !24
  %35 = load i64, ptr %9, align 8, !tbaa !26
  %36 = mul nsw i64 8, %35
  %37 = load ptr, ptr %8, align 8, !tbaa !24
  %38 = getelementptr inbounds i8, ptr %37, i64 %36
  store ptr %38, ptr %8, align 8, !tbaa !24
  %39 = load ptr, ptr %6, align 8, !tbaa !22
  %40 = load ptr, ptr %7, align 8, !tbaa !24
  %41 = load ptr, ptr %8, align 8, !tbaa !24
  %42 = load i64, ptr %9, align 8, !tbaa !26
  %43 = call i32 @hadamard8_diff8x8_c(ptr noundef %39, ptr noundef %40, ptr noundef %41, i64 noundef %42, i32 noundef 8)
  %44 = load i32, ptr %11, align 4, !tbaa !11
  %45 = add nsw i32 %44, %43
  store i32 %45, ptr %11, align 4, !tbaa !11
  %46 = load ptr, ptr %6, align 8, !tbaa !22
  %47 = load ptr, ptr %7, align 8, !tbaa !24
  %48 = getelementptr inbounds i8, ptr %47, i64 8
  %49 = load ptr, ptr %8, align 8, !tbaa !24
  %50 = getelementptr inbounds i8, ptr %49, i64 8
  %51 = load i64, ptr %9, align 8, !tbaa !26
  %52 = call i32 @hadamard8_diff8x8_c(ptr noundef %46, ptr noundef %48, ptr noundef %50, i64 noundef %51, i32 noundef 8)
  %53 = load i32, ptr %11, align 4, !tbaa !11
  %54 = add nsw i32 %53, %52
  store i32 %54, ptr %11, align 4, !tbaa !11
  br label %55

55:                                               ; preds = %30, %5
  %56 = load i32, ptr %11, align 4, !tbaa !11
  call void @llvm.lifetime.end.p0(i64 4, ptr %11) #9
  ret i32 %56
}